(dp1
S'output'
p2
S"<type 'exceptions.ValueError'> dictionary update sequence element #0 has length 11; 2 is required"
p3
sS'layer'
p4
S'/home/hogu/Documenten/projects/web2py/applications/mvh/controllers/kalender.py'
p5
sS'code'
p6
S'def overzicht():\n    db.kalender.jaar.represent = jaar_link\n    kalenders = db(db.kalender).select(orderby=~db.kalender.jaar)\n    return dict(kalenders)\n\ndef overzicht_old():\n    db.kalender.jaar.represent = jaar_link\n    grid = SQLFORM.grid(db.kalender, editable=False, deletable=False,\n                        create=False, details=False, csv=False,\n                        fields=[db.kalender.jaar],\n                        field_id=db.kalender.id,\n                        sortable=False,\n                        searchable=False,\n                        links=[wedstrijden_link],\n                        orderby=~db.kalender.jaar)\n\ndef detail():\n    kalender_id = request.args(0)\n    kalender = db.kalender(kalender_id)\n    form = crud.update(db.kalender, kalender, next=URL("overzicht"))\n    return dict(form=form)\n\ndef add():\n    form = crud.create(db.kalender, next="overzicht")\n    return dict(form=form)\n\n\ndef wedstrijden():\n    kalender_id = request.args(0)\n    kalender = db.kalender(kalender_id)\n    wedstrijden = (\n        db(db.wedstrijd.kalender==kalender.id).select(db.wedstrijd.datum,\n                                                   db.wedstrijd.omschrijving,\n                                                   orderby=db.wedstrijd.datum))\n    return dict(kalender=kalender, wedstrijden=wedstrijden)\nresponse._vars=response._caller(overzicht)\n'
p7
sS'snapshot'
p8
(dp9
sS'traceback'
p10
S'Traceback (most recent call last):\n  File "/home/hogu/Documenten/projects/web2py/gluon/restricted.py", line 217, in restricted\n    exec ccode in environment\n  File "/home/hogu/Documenten/projects/web2py/applications/mvh/controllers/kalender.py", line 36, in <module>\n  File "/home/hogu/Documenten/projects/web2py/gluon/globals.py", line 372, in <lambda>\n    self._caller = lambda f: f()\n  File "/home/hogu/Documenten/projects/web2py/applications/mvh/controllers/kalender.py", line 4, in overzicht\n    return dict(kalenders)\nValueError: dictionary update sequence element #0 has length 11; 2 is required\n'
p11
s.